target datalayout = "e-m:e-p270:32:32-p271:32:32-p272:64:64-i64:64-i128:128-f80:128-n8:16:32:64-S128"
target triple = "x86_64-pc-linux-gnu"

@.str.363 = private unnamed_addr constant [14 x i8] c"out of memory\00", align 1

; Function Attrs: nounwind uwtable
define internal ptr @escape_quotes(ptr noundef %0) #0 {
  %2 = alloca ptr, align 8
  %3 = alloca ptr, align 8
  store ptr %0, ptr %2, align 8
  call void @llvm.lifetime.start.p0(i64 8, ptr %3) #10
  %4 = load ptr, ptr %2, align 8
  %5 = call ptr @escape_single_quotes_ascii(ptr noundef %4)
  store ptr %5, ptr %3, align 8
  %6 = load ptr, ptr %3, align 8
  %7 = icmp ne ptr %6, null
  br i1 %7, label %12, label %8

8:                                                ; preds = %1
  br label %9

9:                                                ; preds = %8
  call void (i32, i32, ptr, ...) @pg_log_generic(i32 noundef 4, i32 noundef 0, ptr noundef @.str.363)
  call void @exit(i32 noundef 1) #12
  unreachable

10:                                               ; No predecessors!
  br label %11

11:                                               ; preds = %10
  br label %12

12:                                               ; preds = %11, %1
  %13 = load ptr, ptr %3, align 8
  call void @llvm.lifetime.end.p0(i64 8, ptr %3) #10
  ret ptr %13
}

; Function Attrs: nounwind uwtable
define internal ptr @escape_quotes_bki(ptr noundef %0) #0 {
  %2 = alloca ptr, align 8
  %3 = alloca ptr, align 8
  %4 = alloca ptr, align 8
  %5 = alloca ptr, align 8
  %6 = alloca ptr, align 8
  store ptr %0, ptr %2, align 8
  call void @llvm.lifetime.start.p0(i64 8, ptr %3) #10
  call void @llvm.lifetime.start.p0(i64 8, ptr %4) #10
  %7 = load ptr, ptr %2, align 8
  %8 = call ptr @escape_quotes(ptr noundef %7)
  store ptr %8, ptr %4, align 8
  call void @llvm.lifetime.start.p0(i64 8, ptr %5) #10
  call void @llvm.lifetime.start.p0(i64 8, ptr %6) #10
  %9 = load ptr, ptr %4, align 8
  %10 = call i64 @strlen(ptr noundef %9) #11
  %11 = add i64 %10, 3
  %12 = call ptr @pg_malloc(i64 noundef %11)
  store ptr %12, ptr %3, align 8
  %13 = load ptr, ptr %3, align 8
  store ptr %13, ptr %5, align 8
  %14 = load ptr, ptr %5, align 8
  %15 = getelementptr inbounds nuw i8, ptr %14, i32 1
  store ptr %15, ptr %5, align 8
  store i8 39, ptr %14, align 1
  %16 = load ptr, ptr %4, align 8
  store ptr %16, ptr %6, align 8
  br label %17

17:                                               ; preds = %26, %1
  %18 = load ptr, ptr %6, align 8
  %19 = load i8, ptr %18, align 1
  %20 = icmp ne i8 %19, 0
  br i1 %20, label %21, label %29

21:                                               ; preds = %17
  %22 = load ptr, ptr %6, align 8
  %23 = load i8, ptr %22, align 1
  %24 = load ptr, ptr %5, align 8
  %25 = getelementptr inbounds nuw i8, ptr %24, i32 1
  store ptr %25, ptr %5, align 8
  store i8 %23, ptr %24, align 1
  br label %26

26:                                               ; preds = %21
  %27 = load ptr, ptr %6, align 8
  %28 = getelementptr inbounds nuw i8, ptr %27, i32 1
  store ptr %28, ptr %6, align 8
  br label %17, !llvm.loop !30

29:                                               ; preds = %17
  %30 = load ptr, ptr %5, align 8
  %31 = getelementptr inbounds nuw i8, ptr %30, i32 1
  store ptr %31, ptr %5, align 8
  store i8 39, ptr %30, align 1
  %32 = load ptr, ptr %5, align 8
  store i8 0, ptr %32, align 1
  %33 = load ptr, ptr %4, align 8
  call void @free(ptr noundef %33) #10
  %34 = load ptr, ptr %3, align 8
  call void @llvm.lifetime.end.p0(i64 8, ptr %6) #10
  call void @llvm.lifetime.end.p0(i64 8, ptr %5) #10
  call void @llvm.lifetime.end.p0(i64 8, ptr %4) #10
  call void @llvm.lifetime.end.p0(i64 8, ptr %3) #10
  ret ptr %34
}