; Function Attrs: nounwind uwtable
define internal fastcc noundef ptr @escape_quotes_bki(ptr noundef %0) unnamed_addr #0 {
  %2 = tail call ptr @escape_single_quotes_ascii(ptr noundef %0) #19
  %.not.i = icmp eq ptr %2, null
  br i1 %.not.i, label %3, label %escape_quotes.exit

3:                                                ; preds = %1
  tail call void (i32, i32, ptr, ...) @pg_log_generic(i32 noundef 4, i32 noundef 0, ptr noundef nonnull @.str.363) #19
  tail call void @exit(i32 noundef 1) #20
  unreachable

escape_quotes.exit:                               ; preds = %1
  %4 = tail call i64 @strlen(ptr noundef nonnull dereferenceable(1) %2) #21
  %5 = add i64 %4, 3
  %6 = tail call ptr @pg_malloc(i64 noundef %5) #19
  store i8 39, ptr %6, align 1
  %.01315 = getelementptr inbounds nuw i8, ptr %6, i64 1
  %7 = load i8, ptr %2, align 1
  %.not16 = icmp eq i8 %7, 0
  br i1 %.not16, label %._crit_edge, label %.lr.ph

.lr.ph:                                           ; preds = %escape_quotes.exit, %.lr.ph
  %8 = phi i8 [ %10, %.lr.ph ], [ %7, %escape_quotes.exit ]
  %.01318 = phi ptr [ %.013, %.lr.ph ], [ %.01315, %escape_quotes.exit ]
  %.017 = phi ptr [ %9, %.lr.ph ], [ %2, %escape_quotes.exit ]
  store i8 %8, ptr %.01318, align 1
  %9 = getelementptr inbounds nuw i8, ptr %.017, i64 1
  %.013 = getelementptr inbounds nuw i8, ptr %.01318, i64 1
  %10 = load i8, ptr %9, align 1
  %.not = icmp eq i8 %10, 0
  br i1 %.not, label %._crit_edge, label %.lr.ph, !llvm.loop !27

._crit_edge:                                      ; preds = %.lr.ph, %escape_quotes.exit
  %.pn.lcssa = phi ptr [ %6, %escape_quotes.exit ], [ %.01318, %.lr.ph ]
  %.013.lcssa = phi ptr [ %.01315, %escape_quotes.exit ], [ %.013, %.lr.ph ]
  %11 = getelementptr inbounds nuw i8, ptr %.pn.lcssa, i64 2
  store i8 39, ptr %.013.lcssa, align 1
  store i8 0, ptr %11, align 1
  tail call void @free(ptr noundef %2) #19
  ret ptr %6
}